target datalayout = "e-m:e-p270:32:32-p271:32:32-p272:64:64-i64:64-i128:128-f80:128-n8:16:32:64-S128"
target triple = "x86_64-pc-linux-gnu"

%struct._GLFWlibrary = type { i32, %struct.GLFWallocator, %struct._GLFWplatform, %struct.anon.7, ptr, ptr, ptr, ptr, i32, i32, [16 x %struct._GLFWjoystick], ptr, i32, %struct._GLFWtls, %struct._GLFWtls, %struct._GLFWmutex, %struct.anon.16, %struct.anon.17, %struct.anon.18, %struct.anon.19, %struct.anon.20, %struct._GLFWlibraryWayland, %struct._GLFWlibraryX11, %struct._GLFWlibraryNull, %struct._GLFWlibraryGLX, %struct._GLFWlibraryLinux }
%struct.GLFWallocator = type { ptr, ptr, ptr, ptr }
%struct._GLFWplatform = type { i32, ptr, ptr, ptr, ptr, ptr, ptr, ptr, ptr, ptr, ptr, ptr, ptr, ptr, ptr, ptr, ptr, ptr, ptr, ptr, ptr, ptr, ptr, ptr, ptr, ptr, ptr, ptr, ptr, ptr, ptr, ptr, ptr, ptr, ptr, ptr, ptr, ptr, ptr, ptr, ptr, ptr, ptr, ptr, ptr, ptr, ptr, ptr, ptr, ptr, ptr, ptr, ptr, ptr, ptr, ptr, ptr, ptr, ptr, ptr, ptr, ptr, ptr, ptr, ptr, ptr, ptr, ptr, ptr, ptr, ptr, ptr }
%struct.anon.7 = type { %struct._GLFWinitconfig, %struct._GLFWfbconfig, %struct._GLFWwndconfig, %struct._GLFWctxconfig, i32 }
%struct._GLFWinitconfig = type { i32, i32, i32, ptr, %struct.anon.8, %struct.anon.9, %struct.anon.10 }
%struct.anon.8 = type { i32, i32 }
%struct.anon.9 = type { i32 }
%struct.anon.10 = type { i32 }
%struct._GLFWfbconfig = type { i32, i32, i32, i32, i32, i32, i32, i32, i32, i32, i32, i32, i32, i32, i32, i32, i64 }
%struct._GLFWwndconfig = type { i32, i32, i32, i32, ptr, i32, i32, i32, i32, i32, i32, i32, i32, i32, i32, i32, i32, %struct.anon.11, %struct.anon.12, %struct.anon.13, %struct.anon.14 }
%struct.anon.11 = type { [256 x i8] }
%struct.anon.12 = type { [256 x i8], [256 x i8] }
%struct.anon.13 = type { i32, i32 }
%struct.anon.14 = type { [256 x i8] }
%struct._GLFWctxconfig = type { i32, i32, i32, i32, i32, i32, i32, i32, i32, i32, ptr, %struct.anon.15 }
%struct.anon.15 = type { i32 }
%struct._GLFWjoystick = type { i32, i32, ptr, i32, ptr, i32, ptr, i32, [128 x i8], ptr, [33 x i8], ptr, %struct._GLFWjoystickLinux }
%struct._GLFWjoystickLinux = type { i32, [4096 x i8], [512 x i32], [64 x i32], [64 x %struct.input_absinfo], [4 x [2 x i32]] }
%struct.input_absinfo = type { i32, i32, i32, i32, i32, i32 }
%struct._GLFWtls = type { %struct._GLFWtlsPOSIX }
%struct._GLFWtlsPOSIX = type { i32, i32 }
%struct._GLFWmutex = type { %struct._GLFWmutexPOSIX }
%struct._GLFWmutexPOSIX = type { i32, %union.pthread_mutex_t }
%union.pthread_mutex_t = type { %struct.__pthread_mutex_s }
%struct.__pthread_mutex_s = type { i32, i32, i32, i32, i32, i16, i16, %struct.__pthread_internal_list }
%struct.__pthread_internal_list = type { ptr, ptr }
%struct.anon.16 = type { i64, %struct._GLFWtimerPOSIX }
%struct._GLFWtimerPOSIX = type { i32, i64 }
%struct.anon.17 = type { i32, ptr, i32, i32, i32, i32, i32, i32, i32, i32, i32, i32, i32, i32, i32, i32, i32, i32, i32, i32, ptr, ptr, ptr, ptr, ptr, ptr, ptr, ptr, ptr, ptr, ptr, ptr, ptr, ptr, ptr, ptr, ptr, ptr, ptr }
%struct.anon.18 = type { ptr, ptr, ptr, ptr, ptr, ptr, ptr, ptr }
%struct.anon.19 = type { i32, ptr, [2 x ptr], ptr, i32, i32, i32, i32, i32, i32, i32 }
%struct.anon.20 = type { ptr, ptr }
%struct._GLFWlibraryWayland = type { ptr, ptr, ptr, ptr, ptr, ptr, ptr, ptr, ptr, ptr, ptr, ptr, ptr, ptr, ptr, ptr, ptr, ptr, ptr, i32, ptr, ptr, ptr, ptr, i32, ptr, ptr, ptr, ptr, ptr, i32, i32, i32, i32, i32, i32, i32, ptr, [256 x i16], [349 x i16], [349 x [5 x i8]], %struct.anon.21, ptr, ptr, %struct.anon.22, %struct.anon.23, %struct.anon.24, %struct.anon.25 }
%struct.anon.21 = type { ptr, ptr, ptr, ptr, ptr, i32, i32, i32, i32, i32, i32, i32, ptr, ptr, ptr, ptr, ptr, ptr, ptr, ptr, ptr, ptr, ptr, ptr, ptr, ptr, ptr, ptr, ptr, ptr, ptr, ptr }
%struct.anon.22 = type { ptr, ptr, ptr, ptr, ptr, ptr, ptr, ptr, ptr, ptr, ptr, ptr, ptr, ptr, ptr, ptr, ptr, ptr, ptr, ptr }
%struct.anon.23 = type { ptr, ptr, ptr, ptr, ptr }
%struct.anon.24 = type { ptr, ptr, ptr, ptr }
%struct.anon.25 = type { ptr, ptr, ptr, i32, ptr, ptr, ptr, ptr, ptr, ptr, ptr, ptr, ptr, ptr, ptr, ptr, ptr, ptr, ptr, ptr, ptr, ptr, ptr, ptr, ptr, ptr, ptr, ptr, ptr }
%struct._GLFWlibraryX11 = type { ptr, i32, i64, float, float, i64, i64, i32, ptr, ptr, i32, ptr, ptr, [349 x [5 x i8]], [256 x i16], [349 x i16], double, double, ptr, [2 x i32], i64, i64, i64, i64, i64, i64, i64, i64, i64, i64, i64, i64, i64, i64, i64, i64, i64, i64, i64, i64, i64, i64, i64, i64, i64, i64, i64, i64, i64, i64, i64, i64, i64, i64, i64, i64, i64, i64, i64, i64, i64, i64, i64, i64, i64, i64, i64, i64, i64, i64, %struct.anon.26, %struct.anon.27, %struct.anon.28, %struct.anon.29, %struct.anon.30, %struct.anon.31, %struct.anon.32, %struct.anon.33, %struct.anon.34, %struct.anon.35, %struct.anon.36, %struct.anon.37, %struct.anon.38 }
%struct.anon.26 = type { ptr, i32, ptr, ptr, ptr, ptr, ptr, ptr, ptr, ptr, ptr, ptr, ptr, ptr, ptr, ptr, ptr, ptr, ptr, ptr, ptr, ptr, ptr, ptr, ptr, ptr, ptr, ptr, ptr, ptr, ptr, ptr, ptr, ptr, ptr, ptr, ptr, ptr, ptr, ptr, ptr, ptr, ptr, ptr, ptr, ptr, ptr, ptr, ptr, ptr, ptr, ptr, ptr, ptr, ptr, ptr, ptr, ptr, ptr, ptr, ptr, ptr, ptr, ptr, ptr, ptr, ptr, ptr, ptr, ptr, ptr, ptr, ptr, ptr, ptr, ptr, ptr, ptr, ptr, ptr, ptr, ptr, ptr, ptr, ptr, ptr, ptr, ptr }
%struct.anon.27 = type { ptr, ptr, ptr, ptr }
%struct.anon.28 = type { i32, ptr, i32, i32, i32, i32, i32, i32, ptr, ptr, ptr, ptr, ptr, ptr, ptr, ptr, ptr, ptr, ptr, ptr, ptr, ptr, ptr, ptr, ptr }
%struct.anon.29 = type { i32, i32, i32, i32, i32, i32, i32, i32, ptr, ptr, ptr, ptr, ptr, ptr, ptr, ptr, ptr }
%struct.anon.30 = type { i32, i32, i32, i32, i32 }
%struct.anon.31 = type { i32, i64, i64 }
%struct.anon.32 = type { ptr, ptr, ptr, ptr, ptr, ptr, ptr }
%struct.anon.33 = type { i32, ptr, i32, i32, ptr, ptr, ptr }
%struct.anon.34 = type { ptr, ptr }
%struct.anon.35 = type { i32, ptr, i32, i32, ptr, ptr, ptr, ptr }
%struct.anon.36 = type { i32, ptr, i32, i32, i32, i32, i32, ptr, ptr }
%struct.anon.37 = type { i32, ptr, i32, i32, i32, i32, ptr, ptr, ptr }
%struct.anon.38 = type { i32, ptr, i32, i32, i32, i32, ptr, ptr, ptr, ptr }
%struct._GLFWlibraryNull = type { i32, i32, ptr, ptr, [121 x i16], [349 x i8] }
%struct._GLFWlibraryGLX = type { i32, i32, i32, i32, ptr, ptr, ptr, ptr, ptr, ptr, ptr, ptr, ptr, ptr, ptr, ptr, ptr, ptr, ptr, ptr, ptr, ptr, ptr, ptr, i32, i32, i32, i32, i32, i32, i32, i32, i32, i32, i32, i32 }
%struct._GLFWlibraryLinux = type { i32, i32, %struct.re_pattern_buffer, i32, i32 }
%struct.re_pattern_buffer = type { ptr, i64, i64, i64, ptr, ptr, i64, i8 }
%struct._GLFWwindow = type { ptr, i32, i32, i32, i32, i32, i32, i32, ptr, i32, %struct.GLFWvidmode, ptr, ptr, ptr, i32, i32, i32, i32, i32, i32, i32, i32, i32, i32, [8 x i8], [349 x i8], double, double, i32, %struct._GLFWcontext, %struct.anon.1, %struct._GLFWwindowWayland, %struct._GLFWwindowX11, %struct._GLFWwindowNull }
%struct.GLFWvidmode = type { i32, i32, i32, i32, i32, i32 }
%struct._GLFWcontext = type { i32, i32, i32, i32, i32, i32, i32, i32, i32, i32, i32, ptr, ptr, ptr, ptr, ptr, ptr, ptr, ptr, ptr, %struct.anon, %struct.anon.0, %struct._GLFWcontextGLX }
%struct.anon = type { ptr, ptr, ptr, ptr }
%struct.anon.0 = type { ptr, i32, i32, ptr }
%struct._GLFWcontextGLX = type { ptr, i64 }
%struct.anon.1 = type { ptr, ptr, ptr, ptr, ptr, ptr, ptr, ptr, ptr, ptr, ptr, ptr, ptr, ptr, ptr, ptr, ptr }
%struct._GLFWwindowWayland = type { i32, i32, i32, i32, i32, i32, i32, i32, i32, i32, i32, ptr, ptr, %struct.anon.2, %struct.anon.3, %struct.anon.4, %struct.anon.5, ptr, double, double, ptr, i32, ptr, i64, i64, ptr, i32, ptr, ptr, ptr, ptr, ptr, ptr, %struct.anon.6 }
%struct.anon.2 = type { ptr }
%struct.anon.3 = type { i32, i32, i32, i32, i32, i32 }
%struct.anon.4 = type { ptr, ptr, ptr, i32 }
%struct.anon.5 = type { ptr }
%struct.anon.6 = type { i32, ptr, %struct._GLFWfallbackEdgeWayland, %struct._GLFWfallbackEdgeWayland, %struct._GLFWfallbackEdgeWayland, %struct._GLFWfallbackEdgeWayland, ptr }
%struct._GLFWfallbackEdgeWayland = type { ptr, ptr, ptr }
%struct._GLFWwindowX11 = type { i64, i64, i64, ptr, i32, i32, i32, i32, i32, i32, i32, i32, i32, i32, i32, i32, [256 x i64] }
%struct._GLFWwindowNull = type { i32, i32, i32, i32, i32, i32, i32, i32, i32, i32, i32, float }

@_glfw = external global %struct._GLFWlibrary, align 8

; Function Attrs: nounwind uwtable
define ptr @glfwSetWindowSizeCallback(ptr noundef %0, ptr noundef %1) #0 {
  %3 = alloca ptr, align 8
  %4 = alloca ptr, align 8
  %5 = alloca ptr, align 8
  %6 = alloca ptr, align 8
  %7 = alloca i32, align 4
  %8 = alloca ptr, align 8
  store ptr %0, ptr %4, align 8, !tbaa !145
  store ptr %1, ptr %5, align 8, !tbaa !288
  call void @llvm.lifetime.start.p0(i64 8, ptr %6) #6
  %9 = load ptr, ptr %4, align 8, !tbaa !145
  store ptr %9, ptr %6, align 8, !tbaa !3
  %10 = load i32, ptr @_glfw, align 8, !tbaa !147
  %11 = icmp ne i32 %10, 0
  br i1 %11, label %13, label %12

12:                                               ; preds = %2
  call void (i32, ptr, ...) @_glfwInputError(i32 noundef 65537, ptr noundef null)
  store ptr null, ptr %3, align 8
  store i32 1, ptr %7, align 4
  br label %24

13:                                               ; preds = %2
  call void @llvm.lifetime.start.p0(i64 8, ptr %8) #6
  %14 = load ptr, ptr %6, align 8, !tbaa !3
  %15 = getelementptr inbounds nuw %struct._GLFWwindow, ptr %14, i32 0, i32 30
  %16 = getelementptr inbounds nuw %struct.anon.1, ptr %15, i32 0, i32 1
  %17 = load ptr, ptr %16, align 8, !tbaa !131
  store ptr %17, ptr %8, align 8, !tbaa !288
  %18 = load ptr, ptr %5, align 8, !tbaa !288
  %19 = load ptr, ptr %6, align 8, !tbaa !3
  %20 = getelementptr inbounds nuw %struct._GLFWwindow, ptr %19, i32 0, i32 30
  %21 = getelementptr inbounds nuw %struct.anon.1, ptr %20, i32 0, i32 1
  store ptr %18, ptr %21, align 8, !tbaa !131
  %22 = load ptr, ptr %8, align 8, !tbaa !288
  store ptr %22, ptr %5, align 8, !tbaa !288
  call void @llvm.lifetime.end.p0(i64 8, ptr %8) #6
  %23 = load ptr, ptr %5, align 8, !tbaa !288
  store ptr %23, ptr %3, align 8
  store i32 1, ptr %7, align 4
  br label %24

24:                                               ; preds = %13, %12
  call void @llvm.lifetime.end.p0(i64 8, ptr %6) #6
  %25 = load ptr, ptr %3, align 8
  ret ptr %25
}